; Function Attrs: mustprogress uwtable
define void @_ZN3re26Regexp8ToStringB5cxx11Ev(ptr noalias nonnull sret(%"class.std::__cxx11::basic_string") align 8 %agg.result, ptr noundef nonnull align 8 dereferenceable(40) %this) local_unnamed_addr #0 align 2 personality ptr @__gxx_personality_v0 {
entry:
  %w = alloca %"class.re2::ToStringWalker", align 8
  tail call void @_ZNSt7__cxx1112basic_stringIcSt11char_traitsIcESaIcEEC1Ev(ptr noundef nonnull align 8 dereferenceable(32) %agg.result) #15
  store ptr getelementptr inbounds ({ [8 x ptr] }, ptr @_ZTVN3re26Regexp6WalkerIiEE, i64 0, i32 0, i64 2), ptr %w, align 8
  %stack_.i.i = getelementptr inbounds i8, ptr %w, i64 8
  call void @llvm.memset.p0.i64(ptr noundef nonnull align 8 dereferenceable(80) %stack_.i.i, i8 0, i64 80, i1 false)
  invoke void @_ZNSt11_Deque_baseIN3re29WalkStateIiEESaIS2_EE17_M_initialize_mapEm(ptr noundef nonnull align 8 dereferenceable(80) %stack_.i.i, i64 noundef 0)
          to label %invoke.cont unwind label %lpad

invoke.cont:                                      ; preds = %entry
  %stopped_early_.i.i = getelementptr inbounds i8, ptr %w, i64 88
  store i8 0, ptr %stopped_early_.i.i, align 8
  store ptr getelementptr inbounds ({ [8 x ptr] }, ptr @_ZTVN3re214ToStringWalkerE, i64 0, i32 0, i64 2), ptr %w, align 8
  %t_.i = getelementptr inbounds i8, ptr %w, i64 96
  store ptr %agg.result, ptr %t_.i, align 8
  %max_visits_.i = getelementptr inbounds i8, ptr %w, i64 92
  store i32 100000, ptr %max_visits_.i, align 4
  %call.i2 = invoke noundef i32 @_ZN3re26Regexp6WalkerIiE12WalkInternalEPS0_ib(ptr noundef nonnull align 8 dereferenceable(96) %w, ptr noundef nonnull %this, i32 noundef 6, i1 noundef zeroext false)
          to label %invoke.cont3 unwind label %lpad2

invoke.cont3:                                     ; preds = %invoke.cont
  %0 = load i8, ptr %stopped_early_.i.i, align 8
  %1 = and i8 %0, 1
  %tobool.i.not = icmp eq i8 %1, 0
  br i1 %tobool.i.not, label %if.end, label %if.then

if.then:                                          ; preds = %invoke.cont3
  %call7 = invoke noundef nonnull align 8 dereferenceable(32) ptr @_ZNSt7__cxx1112basic_stringIcSt11char_traitsIcESaIcEEpLEPKc(ptr noundef nonnull align 8 dereferenceable(32) %agg.result, ptr noundef nonnull @.str)
          to label %if.end unwind label %lpad2

lpad:                                             ; preds = %entry
  %2 = landingpad { ptr, i32 }
          cleanup
  br label %ehcleanup

lpad2:                                            ; preds = %invoke.cont, %if.then
  %3 = landingpad { ptr, i32 }
          cleanup
  call void @_ZN3re214ToStringWalkerD2Ev(ptr noundef nonnull align 8 dereferenceable(104) %w) #15
  br label %ehcleanup

if.end:                                           ; preds = %if.then, %invoke.cont3
  store ptr getelementptr inbounds ({ [8 x ptr] }, ptr @_ZTVN3re26Regexp6WalkerIiEE, i64 0, i32 0, i64 2), ptr %w, align 8
  invoke void @_ZN3re26Regexp6WalkerIiE5ResetEv(ptr noundef nonnull align 8 dereferenceable(96) %w)
          to label %invoke.cont.i.i unwind label %terminate.lpad.i.i

invoke.cont.i.i:                                  ; preds = %if.end
  %4 = load ptr, ptr %stack_.i.i, align 8
  %tobool.not.i.i.i.i.i = icmp eq ptr %4, null
  br i1 %tobool.not.i.i.i.i.i, label %_ZN3re214ToStringWalkerD2Ev.exit, label %if.then.i.i.i.i.i

if.then.i.i.i.i.i:                                ; preds = %invoke.cont.i.i
  %_M_node5.i.i6.i.i.i.i = getelementptr inbounds i8, ptr %w, i64 80
  %_M_node5.i.i.i.i.i.i = getelementptr inbounds i8, ptr %w, i64 48
  %5 = load ptr, ptr %_M_node5.i.i.i.i.i.i, align 8
  %6 = load ptr, ptr %_M_node5.i.i6.i.i.i.i, align 8
  %add.ptr.i.i.i.i.i = getelementptr inbounds i8, ptr %6, i64 8
  %cmp3.i.i.i.i.i.i = icmp ult ptr %5, %add.ptr.i.i.i.i.i
  br i1 %cmp3.i.i.i.i.i.i, label %for.body.i.i.i.i.i.i, label %_ZNSt11_Deque_baseIN3re29WalkStateIiEESaIS2_EE16_M_destroy_nodesEPPS2_S6_.exit.i.i.i.i.i

for.body.i.i.i.i.i.i:                             ; preds = %if.then.i.i.i.i.i, %for.body.i.i.i.i.i.i
  %__n.04.i.i.i.i.i.i = phi ptr [ %incdec.ptr.i.i.i.i.i.i, %for.body.i.i.i.i.i.i ], [ %5, %if.then.i.i.i.i.i ]
  %7 = load ptr, ptr %__n.04.i.i.i.i.i.i, align 8
  call void @_ZdlPv(ptr noundef %7) #16
  %incdec.ptr.i.i.i.i.i.i = getelementptr inbounds i8, ptr %__n.04.i.i.i.i.i.i, i64 8
  %cmp.i.i.i.i.i.i = icmp ult ptr %__n.04.i.i.i.i.i.i, %6
  br i1 %cmp.i.i.i.i.i.i, label %for.body.i.i.i.i.i.i, label %_ZNSt11_Deque_baseIN3re29WalkStateIiEESaIS2_EE16_M_destroy_nodesEPPS2_S6_.exit.loopexit.i.i.i.i.i, !llvm.loop !4

_ZNSt11_Deque_baseIN3re29WalkStateIiEESaIS2_EE16_M_destroy_nodesEPPS2_S6_.exit.loopexit.i.i.i.i.i: ; preds = %for.body.i.i.i.i.i.i
  %.pre.i.i.i.i.i = load ptr, ptr %stack_.i.i, align 8
  br label %_ZNSt11_Deque_baseIN3re29WalkStateIiEESaIS2_EE16_M_destroy_nodesEPPS2_S6_.exit.i.i.i.i.i

_ZNSt11_Deque_baseIN3re29WalkStateIiEESaIS2_EE16_M_destroy_nodesEPPS2_S6_.exit.i.i.i.i.i: ; preds = %_ZNSt11_Deque_baseIN3re29WalkStateIiEESaIS2_EE16_M_destroy_nodesEPPS2_S6_.exit.loopexit.i.i.i.i.i, %if.then.i.i.i.i.i
  %8 = phi ptr [ %.pre.i.i.i.i.i, %_ZNSt11_Deque_baseIN3re29WalkStateIiEESaIS2_EE16_M_destroy_nodesEPPS2_S6_.exit.loopexit.i.i.i.i.i ], [ %4, %if.then.i.i.i.i.i ]
  call void @_ZdlPv(ptr noundef %8) #16
  br label %_ZN3re214ToStringWalkerD2Ev.exit

terminate.lpad.i.i:                               ; preds = %if.end
  %9 = landingpad { ptr, i32 }
          catch ptr null
  %10 = extractvalue { ptr, i32 } %9, 0
  call void @__clang_call_terminate(ptr %10) #17
  unreachable

_ZN3re214ToStringWalkerD2Ev.exit:                 ; preds = %invoke.cont.i.i, %_ZNSt11_Deque_baseIN3re29WalkStateIiEESaIS2_EE16_M_destroy_nodesEPPS2_S6_.exit.i.i.i.i.i
  ret void

ehcleanup:                                        ; preds = %lpad2, %lpad
  %.pn = phi { ptr, i32 } [ %3, %lpad2 ], [ %2, %lpad ]
  call void @_ZNSt7__cxx1112basic_stringIcSt11char_traitsIcESaIcEED1Ev(ptr noundef nonnull align 8 dereferenceable(32) %agg.result) #15
  resume { ptr, i32 } %.pn
}